target datalayout = "e-m:e-p270:32:32-p271:32:32-p272:64:64-i64:64-i128:128-f80:128-n8:16:32:64-S128"
target triple = "x86_64-pc-linux-gnu"

%struct.Wln_Ntk_t_ = type { ptr, ptr, i32, %struct.Vec_Int_t_, %struct.Vec_Int_t_, %struct.Vec_Int_t_, %struct.Vec_Int_t_, ptr, %struct.Vec_Int_t_, ptr, %struct.Vec_Int_t_, %struct.Vec_Int_t_, ptr, %struct.Vec_Str_t_, i32, %struct.Vec_Int_t_, %struct.Vec_Int_t_, %struct.Vec_Int_t_, %struct.Vec_Int_t_, %struct.Vec_Int_t_, %struct.Vec_Int_t_, %struct.Vec_Int_t_, %struct.Vec_Int_t_, ptr, [99 x i32], [99 x i32] }
%struct.Vec_Str_t_ = type { i32, i32, ptr }
%struct.Vec_Int_t_ = type { i32, i32, ptr }
%struct.Wln_Vec_t_ = type { i32, i32, %union.anon }
%union.anon = type { [1 x ptr] }

@stdout = external global ptr, align 8
@.str.2 = private unnamed_addr constant [38 x i8] c"Network contains combinational loop!\0A\00", align 1
@.str.3 = private unnamed_addr constant [55 x i8] c"Node %16s is encountered twice on the following path:\0A\00", align 1
@.str.4 = private unnamed_addr constant [49 x i8] c"Node %16s (ID %6d) of type %5s (type ID %2d) ->\0A\00", align 1

; Function Attrs: inlinehint nounwind uwtable
define internal void @Vec_IntWriteEntry(ptr noundef %0, i32 noundef %1, i32 noundef %2) #4 {
  %4 = alloca ptr, align 8
  %5 = alloca i32, align 4
  %6 = alloca i32, align 4
  store ptr %0, ptr %4, align 8, !tbaa !26
  store i32 %1, ptr %5, align 4, !tbaa !8
  store i32 %2, ptr %6, align 4, !tbaa !8
  %7 = load i32, ptr %6, align 4, !tbaa !8
  %8 = load ptr, ptr %4, align 8, !tbaa !26
  %9 = getelementptr inbounds nuw %struct.Vec_Int_t_, ptr %8, i32 0, i32 2
  %10 = load ptr, ptr %9, align 8, !tbaa !29
  %11 = load i32, ptr %5, align 4, !tbaa !8
  %12 = sext i32 %11 to i64
  %13 = getelementptr inbounds i32, ptr %10, i64 %12
  store i32 %7, ptr %13, align 4, !tbaa !8
  ret void
}

; Function Attrs: inlinehint nounwind uwtable
define internal i32 @Vec_IntEntry(ptr noundef %0, i32 noundef %1) #4 {
  %3 = alloca ptr, align 8
  %4 = alloca i32, align 4
  store ptr %0, ptr %3, align 8, !tbaa !26
  store i32 %1, ptr %4, align 4, !tbaa !8
  %5 = load ptr, ptr %3, align 8, !tbaa !26
  %6 = getelementptr inbounds nuw %struct.Vec_Int_t_, ptr %5, i32 0, i32 2
  %7 = load ptr, ptr %6, align 8, !tbaa !29
  %8 = load i32, ptr %4, align 4, !tbaa !8
  %9 = sext i32 %8 to i64
  %10 = getelementptr inbounds i32, ptr %7, i64 %9
  %11 = load i32, ptr %10, align 4, !tbaa !8
  ret i32 %11
}

; Function Attrs: inlinehint nounwind uwtable
define internal i32 @Wln_ObjFanin(ptr noundef %0, i32 noundef %1, i32 noundef %2) #4 {
  %4 = alloca ptr, align 8
  %5 = alloca i32, align 4
  %6 = alloca i32, align 4
  store ptr %0, ptr %4, align 8, !tbaa !10
  store i32 %1, ptr %5, align 4, !tbaa !8
  store i32 %2, ptr %6, align 4, !tbaa !8
  %7 = load ptr, ptr %4, align 8, !tbaa !10
  %8 = load i32, ptr %5, align 4, !tbaa !8
  %9 = call i32 @Wln_ObjFaninNum(ptr noundef %7, i32 noundef %8)
  %10 = icmp sgt i32 %9, 2
  br i1 %10, label %11, label %25

11:                                               ; preds = %3
  %12 = load ptr, ptr %4, align 8, !tbaa !10
  %13 = getelementptr inbounds nuw %struct.Wln_Ntk_t_, ptr %12, i32 0, i32 7
  %14 = load ptr, ptr %13, align 8, !tbaa !21
  %15 = load i32, ptr %5, align 4, !tbaa !8
  %16 = sext i32 %15 to i64
  %17 = getelementptr inbounds %struct.Wln_Vec_t_, ptr %14, i64 %16
  %18 = getelementptr inbounds nuw %struct.Wln_Vec_t_, ptr %17, i32 0, i32 2
  %19 = getelementptr inbounds [1 x ptr], ptr %18, i64 0, i64 0
  %20 = load ptr, ptr %19, align 8, !tbaa !35
  %21 = load i32, ptr %6, align 4, !tbaa !8
  %22 = sext i32 %21 to i64
  %23 = getelementptr inbounds i32, ptr %20, i64 %22
  %24 = load i32, ptr %23, align 4, !tbaa !8
  br label %37

25:                                               ; preds = %3
  %26 = load ptr, ptr %4, align 8, !tbaa !10
  %27 = getelementptr inbounds nuw %struct.Wln_Ntk_t_, ptr %26, i32 0, i32 7
  %28 = load ptr, ptr %27, align 8, !tbaa !21
  %29 = load i32, ptr %5, align 4, !tbaa !8
  %30 = sext i32 %29 to i64
  %31 = getelementptr inbounds %struct.Wln_Vec_t_, ptr %28, i64 %30
  %32 = getelementptr inbounds nuw %struct.Wln_Vec_t_, ptr %31, i32 0, i32 2
  %33 = load i32, ptr %6, align 4, !tbaa !8
  %34 = sext i32 %33 to i64
  %35 = getelementptr inbounds [2 x i32], ptr %32, i64 0, i64 %34
  %36 = load i32, ptr %35, align 4, !tbaa !35
  br label %37

37:                                               ; preds = %25, %11
  %38 = phi i32 [ %24, %11 ], [ %36, %25 ]
  ret i32 %38
}

; Function Attrs: inlinehint nounwind uwtable
define internal void @Wln_ObjSetTravIdPrevious(ptr noundef %0, i32 noundef %1) #4 {
  %3 = alloca ptr, align 8
  %4 = alloca i32, align 4
  store ptr %0, ptr %3, align 8, !tbaa !10
  store i32 %1, ptr %4, align 4, !tbaa !8
  %5 = load ptr, ptr %3, align 8, !tbaa !10
  %6 = getelementptr inbounds nuw %struct.Wln_Ntk_t_, ptr %5, i32 0, i32 15
  %7 = load i32, ptr %4, align 4, !tbaa !8
  %8 = load ptr, ptr %3, align 8, !tbaa !10
  %9 = getelementptr inbounds nuw %struct.Wln_Ntk_t_, ptr %8, i32 0, i32 14
  %10 = load i32, ptr %9, align 8, !tbaa !90
  %11 = sub nsw i32 %10, 1
  call void @Vec_IntWriteEntry(ptr noundef %6, i32 noundef %7, i32 noundef %11)
  ret void
}

; Function Attrs: inlinehint nounwind uwtable
define internal i32 @Wln_ObjFaninNum(ptr noundef %0, i32 noundef %1) #4 {
  %3 = alloca ptr, align 8
  %4 = alloca i32, align 4
  store ptr %0, ptr %3, align 8, !tbaa !10
  store i32 %1, ptr %4, align 4, !tbaa !8
  %5 = load ptr, ptr %3, align 8, !tbaa !10
  %6 = getelementptr inbounds nuw %struct.Wln_Ntk_t_, ptr %5, i32 0, i32 7
  %7 = load ptr, ptr %6, align 8, !tbaa !21
  %8 = load i32, ptr %4, align 4, !tbaa !8
  %9 = sext i32 %8 to i64
  %10 = getelementptr inbounds %struct.Wln_Vec_t_, ptr %7, i64 %9
  %11 = getelementptr inbounds nuw %struct.Wln_Vec_t_, ptr %10, i32 0, i32 1
  %12 = load i32, ptr %11, align 4, !tbaa !69
  ret i32 %12
}

; Function Attrs: inlinehint nounwind uwtable
define internal i32 @Wln_ObjIsFf(ptr noundef %0, i32 noundef %1) #4 {
  %3 = alloca ptr, align 8
  %4 = alloca i32, align 4
  store ptr %0, ptr %3, align 8, !tbaa !10
  store i32 %1, ptr %4, align 4, !tbaa !8
  %5 = load ptr, ptr %3, align 8, !tbaa !10
  %6 = load i32, ptr %4, align 4, !tbaa !8
  %7 = call i32 @Wln_ObjType(ptr noundef %5, i32 noundef %6)
  %8 = icmp eq i32 %7, 89
  %9 = zext i1 %8 to i32
  ret i32 %9
}

; Function Attrs: inlinehint nounwind uwtable
define internal i32 @Wln_ObjIsCi(ptr noundef %0, i32 noundef %1) #4 {
  %3 = alloca ptr, align 8
  %4 = alloca i32, align 4
  store ptr %0, ptr %3, align 8, !tbaa !10
  store i32 %1, ptr %4, align 4, !tbaa !8
  %5 = load ptr, ptr %3, align 8, !tbaa !10
  %6 = load i32, ptr %4, align 4, !tbaa !8
  %7 = call i32 @Wln_ObjType(ptr noundef %5, i32 noundef %6)
  %8 = icmp eq i32 %7, 3
  %9 = zext i1 %8 to i32
  ret i32 %9
}

; Function Attrs: inlinehint nounwind uwtable
define internal void @Wln_ObjSetTravIdCurrent(ptr noundef %0, i32 noundef %1) #4 {
  %3 = alloca ptr, align 8
  %4 = alloca i32, align 4
  store ptr %0, ptr %3, align 8, !tbaa !10
  store i32 %1, ptr %4, align 4, !tbaa !8
  %5 = load ptr, ptr %3, align 8, !tbaa !10
  %6 = getelementptr inbounds nuw %struct.Wln_Ntk_t_, ptr %5, i32 0, i32 15
  %7 = load i32, ptr %4, align 4, !tbaa !8
  %8 = load ptr, ptr %3, align 8, !tbaa !10
  %9 = getelementptr inbounds nuw %struct.Wln_Ntk_t_, ptr %8, i32 0, i32 14
  %10 = load i32, ptr %9, align 8, !tbaa !90
  call void @Vec_IntWriteEntry(ptr noundef %6, i32 noundef %7, i32 noundef %10)
  ret void
}

; Function Attrs: inlinehint nounwind uwtable
define internal i32 @Wln_ObjType(ptr noundef %0, i32 noundef %1) #4 {
  %3 = alloca ptr, align 8
  %4 = alloca i32, align 4
  store ptr %0, ptr %3, align 8, !tbaa !10
  store i32 %1, ptr %4, align 4, !tbaa !8
  %5 = load ptr, ptr %3, align 8, !tbaa !10
  %6 = getelementptr inbounds nuw %struct.Wln_Ntk_t_, ptr %5, i32 0, i32 6
  %7 = load i32, ptr %4, align 4, !tbaa !8
  %8 = call i32 @Vec_IntEntry(ptr noundef %6, i32 noundef %7)
  ret i32 %8
}

; Function Attrs: inlinehint nounwind uwtable
define internal i32 @Wln_ObjIsTravIdCurrent(ptr noundef %0, i32 noundef %1) #4 {
  %3 = alloca ptr, align 8
  %4 = alloca i32, align 4
  store ptr %0, ptr %3, align 8, !tbaa !10
  store i32 %1, ptr %4, align 4, !tbaa !8
  %5 = load ptr, ptr %3, align 8, !tbaa !10
  %6 = getelementptr inbounds nuw %struct.Wln_Ntk_t_, ptr %5, i32 0, i32 15
  %7 = load i32, ptr %4, align 4, !tbaa !8
  %8 = call i32 @Vec_IntEntry(ptr noundef %6, i32 noundef %7)
  %9 = load ptr, ptr %3, align 8, !tbaa !10
  %10 = getelementptr inbounds nuw %struct.Wln_Ntk_t_, ptr %9, i32 0, i32 14
  %11 = load i32, ptr %10, align 8, !tbaa !90
  %12 = icmp eq i32 %8, %11
  %13 = zext i1 %12 to i32
  ret i32 %13
}

; Function Attrs: inlinehint nounwind uwtable
define internal i32 @Wln_ObjIsTravIdPrevious(ptr noundef %0, i32 noundef %1) #4 {
  %3 = alloca ptr, align 8
  %4 = alloca i32, align 4
  store ptr %0, ptr %3, align 8, !tbaa !10
  store i32 %1, ptr %4, align 4, !tbaa !8
  %5 = load ptr, ptr %3, align 8, !tbaa !10
  %6 = getelementptr inbounds nuw %struct.Wln_Ntk_t_, ptr %5, i32 0, i32 15
  %7 = load i32, ptr %4, align 4, !tbaa !8
  %8 = call i32 @Vec_IntEntry(ptr noundef %6, i32 noundef %7)
  %9 = load ptr, ptr %3, align 8, !tbaa !10
  %10 = getelementptr inbounds nuw %struct.Wln_Ntk_t_, ptr %9, i32 0, i32 14
  %11 = load i32, ptr %10, align 8, !tbaa !90
  %12 = sub nsw i32 %11, 1
  %13 = icmp eq i32 %8, %12
  %14 = zext i1 %13 to i32
  ret i32 %14
}

; Function Attrs: nounwind uwtable
define i32 @Wln_NtkIsAcyclic_rec(ptr noundef %0, i32 noundef %1) #0 {
  %3 = alloca i32, align 4
  %4 = alloca ptr, align 8
  %5 = alloca i32, align 4
  %6 = alloca i32, align 4
  %7 = alloca i32, align 4
  %8 = alloca i32, align 4
  store ptr %0, ptr %4, align 8, !tbaa !10
  store i32 %1, ptr %5, align 4, !tbaa !8
  call void @llvm.lifetime.start.p0(i64 4, ptr %6) #11
  call void @llvm.lifetime.start.p0(i64 4, ptr %7) #11
  %9 = load ptr, ptr %4, align 8, !tbaa !10
  %10 = load i32, ptr %5, align 4, !tbaa !8
  %11 = call i32 @Wln_ObjIsTravIdPrevious(ptr noundef %9, i32 noundef %10)
  %12 = icmp ne i32 %11, 0
  br i1 %12, label %13, label %14

13:                                               ; preds = %2
  store i32 1, ptr %3, align 4
  store i32 1, ptr %8, align 4
  br label %105

14:                                               ; preds = %2
  %15 = load ptr, ptr %4, align 8, !tbaa !10
  %16 = load i32, ptr %5, align 4, !tbaa !8
  %17 = call i32 @Wln_ObjIsTravIdCurrent(ptr noundef %15, i32 noundef %16)
  %18 = icmp ne i32 %17, 0
  br i1 %18, label %19, label %40

19:                                               ; preds = %14
  %20 = load ptr, ptr @stdout, align 8, !tbaa !87
  %21 = call i32 (ptr, ptr, ...) @fprintf(ptr noundef %20, ptr noundef @.str.2) #11
  %22 = load ptr, ptr @stdout, align 8, !tbaa !87
  %23 = load ptr, ptr %4, align 8, !tbaa !10
  %24 = load i32, ptr %5, align 4, !tbaa !8
  %25 = call ptr @Wln_ObjName(ptr noundef %23, i32 noundef %24)
  %26 = call i32 (ptr, ptr, ...) @fprintf(ptr noundef %22, ptr noundef @.str.3, ptr noundef %25) #11
  %27 = load ptr, ptr @stdout, align 8, !tbaa !87
  %28 = load ptr, ptr %4, align 8, !tbaa !10
  %29 = load i32, ptr %5, align 4, !tbaa !8
  %30 = call ptr @Wln_ObjName(ptr noundef %28, i32 noundef %29)
  %31 = load i32, ptr %5, align 4, !tbaa !8
  %32 = load ptr, ptr %4, align 8, !tbaa !10
  %33 = load i32, ptr %5, align 4, !tbaa !8
  %34 = call i32 @Wln_ObjType(ptr noundef %32, i32 noundef %33)
  %35 = call ptr @Abc_OperName(i32 noundef %34)
  %36 = load ptr, ptr %4, align 8, !tbaa !10
  %37 = load i32, ptr %5, align 4, !tbaa !8
  %38 = call i32 @Wln_ObjType(ptr noundef %36, i32 noundef %37)
  %39 = call i32 (ptr, ptr, ...) @fprintf(ptr noundef %27, ptr noundef @.str.4, ptr noundef %30, i32 noundef %31, ptr noundef %35, i32 noundef %38) #11
  store i32 0, ptr %3, align 4
  store i32 1, ptr %8, align 4
  br label %105

40:                                               ; preds = %14
  %41 = load ptr, ptr %4, align 8, !tbaa !10
  %42 = load i32, ptr %5, align 4, !tbaa !8
  call void @Wln_ObjSetTravIdCurrent(ptr noundef %41, i32 noundef %42)
  %43 = load ptr, ptr %4, align 8, !tbaa !10
  %44 = load i32, ptr %5, align 4, !tbaa !8
  %45 = call i32 @Wln_ObjIsCi(ptr noundef %43, i32 noundef %44)
  %46 = icmp ne i32 %45, 0
  br i1 %46, label %57, label %47

47:                                               ; preds = %40
  %48 = load ptr, ptr %4, align 8, !tbaa !10
  %49 = load i32, ptr %5, align 4, !tbaa !8
  %50 = call i32 @Wln_ObjIsFf(ptr noundef %48, i32 noundef %49)
  %51 = icmp ne i32 %50, 0
  br i1 %51, label %57, label %52

52:                                               ; preds = %47
  %53 = load ptr, ptr %4, align 8, !tbaa !10
  %54 = load i32, ptr %5, align 4, !tbaa !8
  %55 = call i32 @Wln_ObjFaninNum(ptr noundef %53, i32 noundef %54)
  %56 = icmp eq i32 %55, 0
  br i1 %56, label %57, label %60

57:                                               ; preds = %52, %47, %40
  %58 = load ptr, ptr %4, align 8, !tbaa !10
  %59 = load i32, ptr %5, align 4, !tbaa !8
  call void @Wln_ObjSetTravIdPrevious(ptr noundef %58, i32 noundef %59)
  store i32 1, ptr %3, align 4
  store i32 1, ptr %8, align 4
  br label %105

60:                                               ; preds = %52
  store i32 0, ptr %6, align 4, !tbaa !8
  br label %61

61:                                               ; preds = %99, %60
  %62 = load i32, ptr %6, align 4, !tbaa !8
  %63 = load ptr, ptr %4, align 8, !tbaa !10
  %64 = load i32, ptr %5, align 4, !tbaa !8
  %65 = call i32 @Wln_ObjFaninNum(ptr noundef %63, i32 noundef %64)
  %66 = icmp slt i32 %62, %65
  br i1 %66, label %67, label %72

67:                                               ; preds = %61
  %68 = load ptr, ptr %4, align 8, !tbaa !10
  %69 = load i32, ptr %5, align 4, !tbaa !8
  %70 = load i32, ptr %6, align 4, !tbaa !8
  %71 = call i32 @Wln_ObjFanin(ptr noundef %68, i32 noundef %69, i32 noundef %70)
  store i32 %71, ptr %7, align 4, !tbaa !8
  br label %72

72:                                               ; preds = %67, %61
  %73 = phi i1 [ false, %61 ], [ true, %67 ]
  br i1 %73, label %74, label %102

74:                                               ; preds = %72
  %75 = load i32, ptr %7, align 4, !tbaa !8
  %76 = icmp ne i32 %75, 0
  br i1 %76, label %78, label %77

77:                                               ; preds = %74
  br label %98

78:                                               ; preds = %74
  %79 = load ptr, ptr %4, align 8, !tbaa !10
  %80 = load i32, ptr %7, align 4, !tbaa !8
  %81 = call i32 @Wln_NtkIsAcyclic_rec(ptr noundef %79, i32 noundef %80)
  %82 = icmp ne i32 %81, 0
  br i1 %82, label %97, label %83

83:                                               ; preds = %78
  %84 = load ptr, ptr @stdout, align 8, !tbaa !87
  %85 = load ptr, ptr %4, align 8, !tbaa !10
  %86 = load i32, ptr %5, align 4, !tbaa !8
  %87 = call ptr @Wln_ObjName(ptr noundef %85, i32 noundef %86)
  %88 = load i32, ptr %5, align 4, !tbaa !8
  %89 = load ptr, ptr %4, align 8, !tbaa !10
  %90 = load i32, ptr %5, align 4, !tbaa !8
  %91 = call i32 @Wln_ObjType(ptr noundef %89, i32 noundef %90)
  %92 = call ptr @Abc_OperName(i32 noundef %91)
  %93 = load ptr, ptr %4, align 8, !tbaa !10
  %94 = load i32, ptr %5, align 4, !tbaa !8
  %95 = call i32 @Wln_ObjType(ptr noundef %93, i32 noundef %94)
  %96 = call i32 (ptr, ptr, ...) @fprintf(ptr noundef %84, ptr noundef @.str.4, ptr noundef %87, i32 noundef %88, ptr noundef %92, i32 noundef %95) #11
  store i32 0, ptr %3, align 4
  store i32 1, ptr %8, align 4
  br label %105

97:                                               ; preds = %78
  br label %98

98:                                               ; preds = %97, %77
  br label %99

99:                                               ; preds = %98
  %100 = load i32, ptr %6, align 4, !tbaa !8
  %101 = add nsw i32 %100, 1
  store i32 %101, ptr %6, align 4, !tbaa !8
  br label %61, !llvm.loop !89

102:                                              ; preds = %72
  %103 = load ptr, ptr %4, align 8, !tbaa !10
  %104 = load i32, ptr %5, align 4, !tbaa !8
  call void @Wln_ObjSetTravIdPrevious(ptr noundef %103, i32 noundef %104)
  store i32 1, ptr %3, align 4
  store i32 1, ptr %8, align 4
  br label %105

105:                                              ; preds = %102, %83, %57, %19, %13
  call void @llvm.lifetime.end.p0(i64 4, ptr %7) #11
  call void @llvm.lifetime.end.p0(i64 4, ptr %6) #11
  %106 = load i32, ptr %3, align 4
  ret i32 %106
}