; Function Attrs: nounwind uwtable
define range(i32 0, 2) i32 @Wln_NtkIsAcyclic_rec(ptr noundef %0, i32 noundef %1) local_unnamed_addr #0 {
  %3 = getelementptr i8, ptr %0, i64 176
  %.val50 = load i32, ptr %3, align 8, !tbaa !80
  %4 = getelementptr i8, ptr %0, i64 192
  %.val51 = load ptr, ptr %4, align 8, !tbaa !17
  %5 = sext i32 %1 to i64
  %6 = getelementptr inbounds i32, ptr %.val51, i64 %5
  %7 = load i32, ptr %6, align 4, !tbaa !22
  %8 = add nsw i32 %.val50, -1
  %.not = icmp eq i32 %7, %8
  br i1 %.not, label %60, label %9

9:                                                ; preds = %2
  %.not67 = icmp eq i32 %7, %.val50
  br i1 %.not67, label %10, label %23

10:                                               ; preds = %9
  %11 = load ptr, ptr @stdout, align 8, !tbaa !81
  %12 = tail call i64 @fwrite(ptr nonnull @.str.2, i64 37, i64 1, ptr %11)
  %13 = load ptr, ptr @stdout, align 8, !tbaa !81
  %14 = tail call ptr @Wln_ObjName(ptr noundef nonnull %0, i32 noundef %1) #18
  %15 = tail call i32 (ptr, ptr, ...) @fprintf(ptr noundef %13, ptr noundef nonnull @.str.3, ptr noundef %14) #18
  %16 = load ptr, ptr @stdout, align 8, !tbaa !81
  %17 = tail call ptr @Wln_ObjName(ptr noundef nonnull %0, i32 noundef %1) #18
  %18 = getelementptr i8, ptr %0, i64 80
  %.val54 = load ptr, ptr %18, align 8, !tbaa !17
  %19 = getelementptr inbounds i32, ptr %.val54, i64 %5
  %20 = load i32, ptr %19, align 4, !tbaa !22
  %21 = tail call fastcc ptr @Abc_OperName(i32 noundef %20)
  %22 = tail call i32 (ptr, ptr, ...) @fprintf(ptr noundef %16, ptr noundef nonnull @.str.4, ptr noundef %17, i32 noundef %1, ptr noundef %21, i32 noundef %20) #18
  br label %60

23:                                               ; preds = %9
  store i32 %.val50, ptr %6, align 4, !tbaa !22
  %24 = getelementptr i8, ptr %0, i64 80
  %.val60 = load ptr, ptr %24, align 8, !tbaa !17
  %25 = getelementptr inbounds i32, ptr %.val60, i64 %5
  %26 = load i32, ptr %25, align 4, !tbaa !22
  switch i32 %26, label %27 [
    i32 3, label %33
    i32 89, label %33
  ]

27:                                               ; preds = %23
  %28 = getelementptr i8, ptr %0, i64 88
  %.val49 = load ptr, ptr %28, align 8, !tbaa !25
  %29 = getelementptr inbounds %struct.Wln_Vec_t_, ptr %.val49, i64 %5, i32 1
  %30 = load i32, ptr %29, align 4, !tbaa !43
  %31 = icmp eq i32 %30, 0
  br i1 %31, label %33, label %.preheader

.preheader:                                       ; preds = %27
  %32 = icmp sgt i32 %30, 0
  br i1 %32, label %.lr.ph, label %.critedge

33:                                               ; preds = %23, %23, %27
  %.val62 = load i32, ptr %3, align 8, !tbaa !80
  %34 = add nsw i32 %.val62, -1
  store i32 %34, ptr %6, align 4, !tbaa !22
  br label %60

.lr.ph:                                           ; preds = %.preheader, %53
  %.val74 = phi ptr [ %.val, %53 ], [ %.val49, %.preheader ]
  %indvars.iv = phi i64 [ %indvars.iv.next, %53 ], [ 0, %.preheader ]
  %35 = phi i32 [ %55, %53 ], [ %30, %.preheader ]
  %36 = icmp sgt i32 %35, 2
  %37 = getelementptr inbounds %struct.Wln_Vec_t_, ptr %.val74, i64 %5, i32 2
  br i1 %36, label %38, label %41

38:                                               ; preds = %.lr.ph
  %39 = load ptr, ptr %37, align 8, !tbaa !24
  %40 = getelementptr inbounds nuw i32, ptr %39, i64 %indvars.iv
  br label %Wln_ObjFanin.exit

41:                                               ; preds = %.lr.ph
  %42 = getelementptr inbounds nuw [2 x i32], ptr %37, i64 0, i64 %indvars.iv
  br label %Wln_ObjFanin.exit

Wln_ObjFanin.exit:                                ; preds = %38, %41
  %.in.i = phi ptr [ %40, %38 ], [ %42, %41 ]
  %43 = load i32, ptr %.in.i, align 4, !tbaa !24
  %.not47 = icmp eq i32 %43, 0
  br i1 %.not47, label %53, label %44

44:                                               ; preds = %Wln_ObjFanin.exit
  %45 = tail call i32 @Wln_NtkIsAcyclic_rec(ptr noundef nonnull %0, i32 noundef %43)
  %.not48 = icmp eq i32 %45, 0
  br i1 %.not48, label %46, label %._crit_edge

._crit_edge:                                      ; preds = %44
  %.val.pre = load ptr, ptr %28, align 8, !tbaa !25
  br label %53

46:                                               ; preds = %44
  %47 = load ptr, ptr @stdout, align 8, !tbaa !81
  %48 = tail call ptr @Wln_ObjName(ptr noundef nonnull %0, i32 noundef %1) #18
  %.val56 = load ptr, ptr %24, align 8, !tbaa !17
  %49 = getelementptr inbounds i32, ptr %.val56, i64 %5
  %50 = load i32, ptr %49, align 4, !tbaa !22
  %51 = tail call fastcc ptr @Abc_OperName(i32 noundef %50)
  %52 = tail call i32 (ptr, ptr, ...) @fprintf(ptr noundef %47, ptr noundef nonnull @.str.4, ptr noundef %48, i32 noundef %1, ptr noundef %51, i32 noundef %50) #18
  br label %60

53:                                               ; preds = %._crit_edge, %Wln_ObjFanin.exit
  %.val = phi ptr [ %.val.pre, %._crit_edge ], [ %.val74, %Wln_ObjFanin.exit ]
  %indvars.iv.next = add nuw nsw i64 %indvars.iv, 1
  %54 = getelementptr inbounds %struct.Wln_Vec_t_, ptr %.val, i64 %5, i32 1
  %55 = load i32, ptr %54, align 4, !tbaa !43
  %56 = sext i32 %55 to i64
  %57 = icmp slt i64 %indvars.iv.next, %56
  br i1 %57, label %.lr.ph, label %.critedge.loopexit, !llvm.loop !83

.critedge.loopexit:                               ; preds = %53
  %.val65.pre = load ptr, ptr %4, align 8, !tbaa !17
  br label %.critedge

.critedge:                                        ; preds = %.critedge.loopexit, %.preheader
  %.val65 = phi ptr [ %.val65.pre, %.critedge.loopexit ], [ %.val51, %.preheader ]
  %.val64 = load i32, ptr %3, align 8, !tbaa !80
  %58 = add nsw i32 %.val64, -1
  %59 = getelementptr inbounds i32, ptr %.val65, i64 %5
  store i32 %58, ptr %59, align 4, !tbaa !22
  br label %60

60:                                               ; preds = %2, %.critedge, %46, %33, %10
  %.0 = phi i32 [ 0, %10 ], [ 1, %33 ], [ 0, %46 ], [ 1, %.critedge ], [ 1, %2 ]
  ret i32 %.0
}